; Function Attrs: mustprogress ssp uwtable
define void @_ZN6open3d13visualization25VisualizerWithKeyCallback17MouseMoveCallbackEP10GLFWwindowdd(ptr noundef nonnull align 8 dereferenceable(648) %0, ptr noundef %1, double noundef %2, double noundef %3) unnamed_addr #2 align 2 personality ptr @__gxx_personality_v0 {
  %5 = alloca ptr, align 8
  %6 = alloca double, align 8
  %7 = alloca double, align 8
  %8 = alloca %"class.std::shared_ptr", align 8
  %9 = getelementptr inbounds nuw i8, ptr %0, i64 568
  %10 = load ptr, ptr %9, align 8, !tbaa !13
  %.not.i.i.not = icmp eq ptr %10, null
  br i1 %.not.i.i.not, label %49, label %_ZNKSt8functionIFbPN6open3d13visualization10VisualizerEddEEclES3_dd.exit

_ZNKSt8functionIFbPN6open3d13visualization10VisualizerEddEEclES3_dd.exit: ; preds = %4
  %11 = getelementptr inbounds nuw i8, ptr %0, i64 552
  call void @llvm.lifetime.start.p0(i64 8, ptr nonnull %5)
  call void @llvm.lifetime.start.p0(i64 8, ptr nonnull %6)
  call void @llvm.lifetime.start.p0(i64 8, ptr nonnull %7)
  store ptr %0, ptr %5, align 8, !tbaa !30
  store double %2, ptr %6, align 8, !tbaa !32
  store double %3, ptr %7, align 8, !tbaa !32
  %12 = getelementptr inbounds nuw i8, ptr %0, i64 576
  %13 = load ptr, ptr %12, align 8, !tbaa !34
  %14 = call noundef zeroext i1 %13(ptr noundef nonnull align 8 dereferenceable(32) %11, ptr noundef nonnull align 8 dereferenceable(8) %5, ptr noundef nonnull align 8 dereferenceable(8) %6, ptr noundef nonnull align 8 dereferenceable(8) %7)
  call void @llvm.lifetime.end.p0(i64 8, ptr nonnull %5)
  call void @llvm.lifetime.end.p0(i64 8, ptr nonnull %6)
  call void @llvm.lifetime.end.p0(i64 8, ptr nonnull %7)
  br i1 %14, label %15, label %_ZNSt12__shared_ptrIKN6open3d8geometry8GeometryELN9__gnu_cxx12_Lock_policyE2EED2Ev.exit

15:                                               ; preds = %_ZNKSt8functionIFbPN6open3d13visualization10VisualizerEddEEclES3_dd.exit
  call void @llvm.memset.p0.i64(ptr noundef nonnull align 8 dereferenceable(16) %8, i8 0, i64 16, i1 false)
  %16 = load ptr, ptr %0, align 8, !tbaa !36
  %17 = getelementptr inbounds nuw i8, ptr %16, i64 40
  %18 = load ptr, ptr %17, align 8
  %19 = invoke noundef zeroext i1 %18(ptr noundef nonnull align 8 dereferenceable(456) %0, ptr noundef nonnull %8)
          to label %20 unwind label %44

20:                                               ; preds = %15
  %21 = getelementptr inbounds nuw i8, ptr %8, i64 8
  %22 = load ptr, ptr %21, align 8, !tbaa !38
  %.not.i.i8 = icmp eq ptr %22, null
  br i1 %.not.i.i8, label %_ZNSt12__shared_ptrIKN6open3d8geometry8GeometryELN9__gnu_cxx12_Lock_policyE2EED2Ev.exit, label %23

23:                                               ; preds = %20
  %24 = getelementptr inbounds nuw i8, ptr %22, i64 8
  %25 = load atomic i64, ptr %24 acquire, align 8
  %26 = icmp eq i64 %25, 4294967297
  %27 = trunc i64 %25 to i32
  br i1 %26, label %28, label %36

28:                                               ; preds = %23
  store i32 0, ptr %24, align 8, !tbaa !41
  %29 = getelementptr inbounds nuw i8, ptr %22, i64 12
  store i32 0, ptr %29, align 4, !tbaa !43
  %30 = load ptr, ptr %22, align 8, !tbaa !36
  %31 = getelementptr inbounds nuw i8, ptr %30, i64 16
  %32 = load ptr, ptr %31, align 8
  call void %32(ptr noundef nonnull align 8 dereferenceable(16) %22) #30
  %33 = load ptr, ptr %22, align 8, !tbaa !36
  %34 = getelementptr inbounds nuw i8, ptr %33, i64 24
  %35 = load ptr, ptr %34, align 8
  call void %35(ptr noundef nonnull align 8 dereferenceable(16) %22) #30
  br label %_ZNSt12__shared_ptrIKN6open3d8geometry8GeometryELN9__gnu_cxx12_Lock_policyE2EED2Ev.exit

36:                                               ; preds = %23
  %37 = load i8, ptr @__libc_single_threaded, align 1, !tbaa !25
  %.not.i.i.i = icmp eq i8 %37, 0
  br i1 %.not.i.i.i, label %40, label %38

38:                                               ; preds = %36
  %39 = add nsw i32 %27, -1
  store i32 %39, ptr %24, align 4, !tbaa !44
  br label %_ZN9__gnu_cxx27__exchange_and_add_dispatchEPii.exit.i.i.i

40:                                               ; preds = %36
  %41 = atomicrmw volatile add ptr %24, i32 -1 acq_rel, align 4
  br label %_ZN9__gnu_cxx27__exchange_and_add_dispatchEPii.exit.i.i.i

_ZN9__gnu_cxx27__exchange_and_add_dispatchEPii.exit.i.i.i: ; preds = %40, %38
  %.0.i.i.i.i = phi i32 [ %27, %38 ], [ %41, %40 ]
  %42 = icmp eq i32 %.0.i.i.i.i, 1
  br i1 %42, label %43, label %_ZNSt12__shared_ptrIKN6open3d8geometry8GeometryELN9__gnu_cxx12_Lock_policyE2EED2Ev.exit, !prof !45

43:                                               ; preds = %_ZN9__gnu_cxx27__exchange_and_add_dispatchEPii.exit.i.i.i
  call void @_ZNSt16_Sp_counted_baseILN9__gnu_cxx12_Lock_policyE2EE24_M_release_last_use_coldEv(ptr noundef nonnull align 8 dereferenceable(16) %22) #30
  br label %_ZNSt12__shared_ptrIKN6open3d8geometry8GeometryELN9__gnu_cxx12_Lock_policyE2EED2Ev.exit

44:                                               ; preds = %15
  %45 = landingpad { ptr, i32 }
          cleanup
  call void @_ZNSt12__shared_ptrIKN6open3d8geometry8GeometryELN9__gnu_cxx12_Lock_policyE2EED2Ev(ptr noundef nonnull align 8 dereferenceable(16) %8) #30
  resume { ptr, i32 } %45

_ZNSt12__shared_ptrIKN6open3d8geometry8GeometryELN9__gnu_cxx12_Lock_policyE2EED2Ev.exit: ; preds = %43, %_ZN9__gnu_cxx27__exchange_and_add_dispatchEPii.exit.i.i.i, %28, %20, %_ZNKSt8functionIFbPN6open3d13visualization10VisualizerEddEEclES3_dd.exit
  %46 = load ptr, ptr %0, align 8, !tbaa !36
  %47 = getelementptr inbounds nuw i8, ptr %46, i64 56
  %48 = load ptr, ptr %47, align 8
  call void %48(ptr noundef nonnull align 8 dereferenceable(456) %0)
  br label %50

49:                                               ; preds = %4
  tail call void @_ZN6open3d13visualization10Visualizer17MouseMoveCallbackEP10GLFWwindowdd(ptr noundef nonnull align 8 dereferenceable(456) %0, ptr noundef %1, double noundef %2, double noundef %3)
  br label %50

50:                                               ; preds = %49, %_ZNSt12__shared_ptrIKN6open3d8geometry8GeometryELN9__gnu_cxx12_Lock_policyE2EED2Ev.exit
  ret void
}